; ModuleID = '49/885.c'
source_filename = "49/885.c"
target datalayout = "e-m:e-p270:32:32-p271:32:32-p272:64:64-i64:64-f80:128-n8:16:32:64-S128"
target triple = "x86_64-pc-linux-gnu"

@.str = private unnamed_addr constant [3 x i8] c"%s\00", align 1

; Function Attrs: noinline nounwind uwtable
define dso_local i32 @main() #0 {
  %1 = alloca i32, align 4
  %2 = alloca [500 x i8], align 16
  %3 = alloca i32, align 4
  %4 = alloca i32, align 4
  %5 = alloca i32, align 4
  %6 = alloca i32, align 4
  %7 = alloca i32, align 4
  %8 = alloca i32, align 4
  store i32 0, i32* %1, align 4
  %9 = getelementptr inbounds [500 x i8], [500 x i8]* %2, i64 0, i64 0
  %10 = call i32 (i8*, ...) @__isoc99_scanf(i8* getelementptr inbounds ([3 x i8], [3 x i8]* @.str, i64 0, i64 0), i8* %9)
  %11 = getelementptr inbounds [500 x i8], [500 x i8]* %2, i64 0, i64 0
  %12 = call i64 @strlen(i8* %11) #3
  %13 = trunc i64 %12 to i32
  store i32 %13, i32* %3, align 4
  store i32 2, i32* %4, align 4
  br label %14

14:                                               ; preds = %84, %0
  %15 = load i32, i32* %4, align 4
  %16 = load i32, i32* %3, align 4
  %17 = icmp sle i32 %15, %16
  br i1 %17, label %18, label %87

18:                                               ; preds = %14
  store i32 0, i32* %6, align 4
  br label %19

19:                                               ; preds = %80, %18
  %20 = load i32, i32* %6, align 4
  %21 = load i32, i32* %3, align 4
  %22 = load i32, i32* %4, align 4
  %23 = sub nsw i32 %21, %22
  %24 = icmp sle i32 %20, %23
  br i1 %24, label %25, label %83

25:                                               ; preds = %19
  %26 = load i32, i32* %6, align 4
  store i32 %26, i32* %8, align 4
  %27 = load i32, i32* %6, align 4
  %28 = load i32, i32* %4, align 4
  %29 = add nsw i32 %27, %28
  %30 = sub nsw i32 %29, 1
  store i32 %30, i32* %7, align 4
  br label %31

31:                                               ; preds = %49, %25
  %32 = load i32, i32* %8, align 4
  %33 = load i32, i32* %7, align 4
  %34 = icmp slt i32 %32, %33
  br i1 %34, label %35, label %47

35:                                               ; preds = %31
  %36 = load i32, i32* %8, align 4
  %37 = sext i32 %36 to i64
  %38 = getelementptr inbounds [500 x i8], [500 x i8]* %2, i64 0, i64 %37
  %39 = load i8, i8* %38, align 1
  %40 = sext i8 %39 to i32
  %41 = load i32, i32* %7, align 4
  %42 = sext i32 %41 to i64
  %43 = getelementptr inbounds [500 x i8], [500 x i8]* %2, i64 0, i64 %42
  %44 = load i8, i8* %43, align 1
  %45 = sext i8 %44 to i32
  %46 = icmp eq i32 %40, %45
  br label %47

47:                                               ; preds = %35, %31
  %48 = phi i1 [ false, %31 ], [ %46, %35 ]
  br i1 %48, label %49, label %54

49:                                               ; preds = %47
  %50 = load i32, i32* %8, align 4
  %51 = add nsw i32 %50, 1
  store i32 %51, i32* %8, align 4
  %52 = load i32, i32* %7, align 4
  %53 = add nsw i32 %52, -1
  store i32 %53, i32* %7, align 4
  br label %31

54:                                               ; preds = %47
  %55 = load i32, i32* %8, align 4
  %56 = load i32, i32* %7, align 4
  %57 = icmp sge i32 %55, %56
  br i1 %57, label %58, label %79

58:                                               ; preds = %54
  %59 = load i32, i32* %6, align 4
  store i32 %59, i32* %5, align 4
  br label %60

60:                                               ; preds = %74, %58
  %61 = load i32, i32* %5, align 4
  %62 = load i32, i32* %6, align 4
  %63 = load i32, i32* %4, align 4
  %64 = add nsw i32 %62, %63
  %65 = sub nsw i32 %64, 1
  %66 = icmp sle i32 %61, %65
  br i1 %66, label %67, label %77

67:                                               ; preds = %60
  %68 = load i32, i32* %5, align 4
  %69 = sext i32 %68 to i64
  %70 = getelementptr inbounds [500 x i8], [500 x i8]* %2, i64 0, i64 %69
  %71 = load i8, i8* %70, align 1
  %72 = sext i8 %71 to i32
  %73 = call i32 @putchar(i32 %72)
  br label %74

74:                                               ; preds = %67
  %75 = load i32, i32* %5, align 4
  %76 = add nsw i32 %75, 1
  store i32 %76, i32* %5, align 4
  br label %60

77:                                               ; preds = %60
  %78 = call i32 @putchar(i32 10)
  br label %79

79:                                               ; preds = %77, %54
  br label %80

80:                                               ; preds = %79
  %81 = load i32, i32* %6, align 4
  %82 = add nsw i32 %81, 1
  store i32 %82, i32* %6, align 4
  br label %19

83:                                               ; preds = %19
  br label %84

84:                                               ; preds = %83
  %85 = load i32, i32* %4, align 4
  %86 = add nsw i32 %85, 1
  store i32 %86, i32* %4, align 4
  br label %14

87:                                               ; preds = %14
  ret i32 0
}

declare dso_local i32 @__isoc99_scanf(i8*, ...) #1

; Function Attrs: nounwind readonly
declare dso_local i64 @strlen(i8*) #2

declare dso_local i32 @putchar(i32) #1


!llvm.module.flags = !{!0}
!llvm.ident = !{!1}

!0 = !{i32 1, !"wchar_size", i32 4}
!1 = !{!"clang version 10.0.0-4ubuntu1 "}
